; Function Attrs: mustprogress uwtable
define hidden noundef i64 @_ZNK11opencv_onnx18OperatorSetIdProto12ByteSizeLongEv(ptr noundef nonnull align 8 dereferenceable(40) %0) unnamed_addr #3 align 2 {
  %2 = getelementptr inbounds nuw i8, ptr %0, i64 16
  %3 = load i32, ptr %2, align 8, !tbaa !51
  %4 = and i32 %3, 3
  %.not = icmp eq i32 %4, 0
  br i1 %.not, label %37, label %5

5:                                                ; preds = %1
  %6 = and i32 %3, 1
  %.not6 = icmp eq i32 %6, 0
  br i1 %.not6, label %25, label %7

7:                                                ; preds = %5
  %8 = getelementptr inbounds nuw i8, ptr %0, i64 24
  %9 = load ptr, ptr %8, align 8, !tbaa !41
  %10 = ptrtoint ptr %9 to i64
  %11 = and i64 %10, -2
  %12 = inttoptr i64 %11 to ptr
  %13 = getelementptr inbounds nuw i8, ptr %12, i64 8
  %14 = load i64, ptr %13, align 8, !tbaa !53
  %15 = trunc i64 %14 to i32
  %16 = or i32 %15, 1
  %17 = tail call range(i32 0, 33) i32 @llvm.ctlz.i32(i32 %16, i1 true)
  %18 = xor i32 %17, 31
  %19 = mul nuw nsw i32 %18, 9
  %20 = add nuw nsw i32 %19, 73
  %21 = lshr i32 %20, 6
  %22 = zext nneg i32 %21 to i64
  %23 = add i64 %14, 1
  %24 = add i64 %23, %22
  br label %25

25:                                               ; preds = %7, %5
  %.1 = phi i64 [ %24, %7 ], [ 0, %5 ]
  %26 = and i32 %3, 2
  %.not7 = icmp eq i32 %26, 0
  br i1 %.not7, label %37, label %27

27:                                               ; preds = %25
  %28 = getelementptr inbounds nuw i8, ptr %0, i64 32
  %29 = load i64, ptr %28, align 8, !tbaa !179
  %30 = or i64 %29, 1
  %31 = tail call range(i64 0, 65) i64 @llvm.ctlz.i64(i64 %30, i1 true)
  %32 = xor i64 %31, 63
  %33 = mul nuw nsw i64 %32, 9
  %34 = add nuw nsw i64 %33, 137
  %35 = lshr i64 %34, 6
  %36 = add i64 %35, %.1
  br label %37

37:                                               ; preds = %25, %27, %1
  %.0 = phi i64 [ %36, %27 ], [ %.1, %25 ], [ 0, %1 ]
  %38 = getelementptr inbounds nuw i8, ptr %0, i64 20
  %39 = tail call noundef i64 @_ZNK6google8protobuf7Message29MaybeComputeUnknownFieldsSizeEmPNS0_8internal10CachedSizeE(ptr noundef nonnull align 8 dereferenceable(16) %0, i64 noundef %.0, ptr noundef nonnull %38)
  ret i64 %39
}